; Function Attrs: mustprogress uwtable
define hidden noundef zeroext i1 @_ZN4cvc58internal6theory11quantifiers9QuantInfo19isBaseMatchCompleteEv(ptr noundef nonnull readonly align 8 captures(none) dereferenceable(648) %0) local_unnamed_addr #3 align 2 personality ptr @__gxx_personality_v0 {
  %2 = alloca %"class.cvc5::internal::NodeTemplate", align 8
  %3 = getelementptr inbounds nuw i8, ptr %0, i64 592
  %4 = load i64, ptr %3, align 8, !tbaa !523
  call void @llvm.lifetime.start.p0(i64 8, ptr nonnull %2) #25
  %5 = getelementptr inbounds nuw i8, ptr %0, i64 376
  tail call void @llvm.experimental.noalias.scope.decl(metadata !524)
  %6 = load ptr, ptr %5, align 8, !tbaa !91, !noalias !524
  %7 = getelementptr inbounds nuw i8, ptr %6, i64 8
  %8 = load i64, ptr %7, align 8, !noalias !524
  %9 = trunc i64 %8 to i32
  %10 = and i32 %9, 1023
  %11 = icmp eq i32 %10, 1023
  %12 = select i1 %11, i32 -1, i32 %10
  %13 = tail call noundef i32 @_ZN4cvc58internal4kind10metaKindOfENS1_6Kind_tE(i32 noundef %12), !noalias !524
  %14 = icmp eq i32 %13, 2
  %15 = getelementptr inbounds nuw i8, ptr %6, i64 24
  %16 = zext i1 %14 to i64
  %17 = getelementptr inbounds nuw [0 x ptr], ptr %15, i64 0, i64 %16
  %18 = load ptr, ptr %17, align 8, !tbaa !103, !noalias !524
  store ptr %18, ptr %2, align 8, !tbaa !91, !alias.scope !524
  %19 = load i64, ptr %18, align 8, !noalias !524
  %20 = lshr i64 %19, 40
  %21 = trunc nuw nsw i64 %20 to i32
  %22 = and i32 %21, 1048575
  %23 = icmp samesign ult i32 %22, 1048574
  br i1 %23, label %24, label %29, !prof !95

24:                                               ; preds = %1
  %25 = add i64 %19, 1099511627776
  %26 = and i64 %25, 1152920405095219200
  %27 = and i64 %19, -1152920405095219201
  %28 = or disjoint i64 %26, %27
  store i64 %28, ptr %18, align 8, !noalias !524
  br label %_ZNK4cvc58internal12NodeTemplateILb1EEixEi.exit

29:                                               ; preds = %1
  %30 = icmp eq i32 %22, 1048574
  br i1 %30, label %31, label %_ZNK4cvc58internal12NodeTemplateILb1EEixEi.exit, !prof !96

31:                                               ; preds = %29
  %32 = or i64 %19, 1152920405095219200
  store i64 %32, ptr %18, align 8, !noalias !524
  tail call void @_ZN4cvc58internal4expr9NodeValue20markRefCountMaxedOutEv(ptr noundef nonnull align 8 dereferenceable(24) %18), !noalias !524
  br label %_ZNK4cvc58internal12NodeTemplateILb1EEixEi.exit

_ZNK4cvc58internal12NodeTemplateILb1EEixEi.exit:  ; preds = %24, %29, %31
  %33 = getelementptr inbounds nuw i8, ptr %18, i64 8
  %34 = load i64, ptr %33, align 8
  %35 = trunc i64 %34 to i32
  %36 = and i32 %35, 1023
  %37 = icmp eq i32 %36, 1023
  %38 = select i1 %37, i32 -1, i32 %36
  %39 = invoke noundef i32 @_ZN4cvc58internal4kind10metaKindOfENS1_6Kind_tE(i32 noundef %38)
          to label %40 unwind label %70

40:                                               ; preds = %_ZNK4cvc58internal12NodeTemplateILb1EEixEi.exit
  %41 = load i64, ptr %33, align 8
  %42 = getelementptr inbounds nuw i8, ptr %0, i64 624
  %43 = getelementptr inbounds nuw i8, ptr %0, i64 632
  %44 = load ptr, ptr %43, align 8, !tbaa !105
  %45 = load ptr, ptr %42, align 8, !tbaa !104
  %46 = load i64, ptr %18, align 8
  %47 = and i64 %46, 1152920405095219200
  %.not.i.i = icmp eq i64 %47, 1152920405095219200
  br i1 %.not.i.i, label %_ZN4cvc58internal12NodeTemplateILb1EED2Ev.exit, label %48, !prof !96

48:                                               ; preds = %40
  %49 = add i64 %46, 1152920405095219200
  %50 = and i64 %49, 1152920405095219200
  %51 = and i64 %46, -1152920405095219201
  %52 = or disjoint i64 %50, %51
  store i64 %52, ptr %18, align 8
  %53 = icmp eq i64 %50, 0
  br i1 %53, label %54, label %_ZN4cvc58internal12NodeTemplateILb1EED2Ev.exit, !prof !96

54:                                               ; preds = %48
  invoke void @_ZN4cvc58internal4expr9NodeValue15markForDeletionEv(ptr noundef nonnull align 8 dereferenceable(24) %18)
          to label %_ZN4cvc58internal12NodeTemplateILb1EED2Ev.exit unwind label %55

55:                                               ; preds = %54
  %56 = landingpad { ptr, i32 }
          catch ptr null
  %57 = extractvalue { ptr, i32 } %56, 0
  tail call void @__clang_call_terminate(ptr %57) #26
  unreachable

_ZN4cvc58internal12NodeTemplateILb1EED2Ev.exit:   ; preds = %40, %48, %54
  %58 = lshr i64 %41, 32
  %59 = and i64 %58, 67108863
  %60 = icmp eq i32 %39, 2
  %61 = sext i1 %60 to i64
  %62 = add nsw i64 %59, %61
  %63 = and i64 %62, 4294967295
  %64 = ptrtoint ptr %44 to i64
  %65 = ptrtoint ptr %45 to i64
  %66 = sub i64 %64, %65
  %67 = ashr exact i64 %66, 3
  %68 = add nsw i64 %67, %63
  %69 = icmp eq i64 %4, %68
  call void @llvm.lifetime.end.p0(i64 8, ptr nonnull %2) #25
  ret i1 %69

70:                                               ; preds = %_ZNK4cvc58internal12NodeTemplateILb1EEixEi.exit
  %71 = landingpad { ptr, i32 }
          cleanup
  call void @_ZN4cvc58internal12NodeTemplateILb1EED2Ev(ptr noundef nonnull align 8 dereferenceable(8) %2) #25
  call void @llvm.lifetime.end.p0(i64 8, ptr nonnull %2) #25
  resume { ptr, i32 } %71
}